target datalayout = "e-m:e-p270:32:32-p271:32:32-p272:64:64-i64:64-i128:128-f80:128-n8:16:32:64-S128"
target triple = "x86_64-pc-linux-gnu"

%struct.shm_mq = type { i8, ptr, ptr, %struct.pg_atomic_uint64, %struct.pg_atomic_uint64, i64, i8, i8, [0 x i8] }
%struct.pg_atomic_uint64 = type { i64 }

; Function Attrs: inlinehint nounwind uwtable
define internal void @pg_atomic_init_u64_impl(ptr noundef %0, i64 noundef %1) #2 {
  %3 = alloca ptr, align 8
  %4 = alloca i64, align 8
  store ptr %0, ptr %3, align 8
  store i64 %1, ptr %4, align 8
  %5 = load i64, ptr %4, align 8
  %6 = load ptr, ptr %3, align 8
  %7 = getelementptr inbounds nuw %struct.pg_atomic_uint64, ptr %6, i32 0, i32 0
  store volatile i64 %5, ptr %7, align 8
  ret void
}

; Function Attrs: inlinehint nounwind uwtable
define internal void @pg_atomic_init_u64(ptr noundef %0, i64 noundef %1) #2 {
  %3 = alloca ptr, align 8
  %4 = alloca i64, align 8
  store ptr %0, ptr %3, align 8
  store i64 %1, ptr %4, align 8
  %5 = load ptr, ptr %3, align 8
  %6 = load i64, ptr %4, align 8
  call void @pg_atomic_init_u64_impl(ptr noundef %5, i64 noundef %6)
  ret void
}

; Function Attrs: nounwind uwtable
define dso_local ptr @shm_mq_create(ptr noundef %0, i64 noundef %1) #0 {
  %3 = alloca ptr, align 8
  %4 = alloca i64, align 8
  %5 = alloca ptr, align 8
  %6 = alloca i64, align 8
  store ptr %0, ptr %3, align 8
  store i64 %1, ptr %4, align 8
  call void @llvm.lifetime.start.p0(i64 8, ptr %5) #8
  %7 = load ptr, ptr %3, align 8
  store ptr %7, ptr %5, align 8
  call void @llvm.lifetime.start.p0(i64 8, ptr %6) #8
  store i64 56, ptr %6, align 8
  %8 = load i64, ptr %4, align 8
  %9 = and i64 %8, -8
  store i64 %9, ptr %4, align 8
  br label %10

10:                                               ; preds = %2
  call void asm sideeffect "", "~{memory},~{dirflag},~{fpsr},~{flags}"() #8, !srcloc !4
  %11 = load ptr, ptr %5, align 8
  %12 = getelementptr inbounds nuw %struct.shm_mq, ptr %11, i32 0, i32 0
  store i8 0, ptr %12, align 8
  br label %13

13:                                               ; preds = %10
  br label %14

14:                                               ; preds = %13
  %15 = load ptr, ptr %5, align 8
  %16 = getelementptr inbounds nuw %struct.shm_mq, ptr %15, i32 0, i32 1
  store ptr null, ptr %16, align 8
  %17 = load ptr, ptr %5, align 8
  %18 = getelementptr inbounds nuw %struct.shm_mq, ptr %17, i32 0, i32 2
  store ptr null, ptr %18, align 8
  %19 = load ptr, ptr %5, align 8
  %20 = getelementptr inbounds nuw %struct.shm_mq, ptr %19, i32 0, i32 3
  call void @pg_atomic_init_u64(ptr noundef %20, i64 noundef 0)
  %21 = load ptr, ptr %5, align 8
  %22 = getelementptr inbounds nuw %struct.shm_mq, ptr %21, i32 0, i32 4
  call void @pg_atomic_init_u64(ptr noundef %22, i64 noundef 0)
  %23 = load i64, ptr %4, align 8
  %24 = load i64, ptr %6, align 8
  %25 = sub i64 %23, %24
  %26 = load ptr, ptr %5, align 8
  %27 = getelementptr inbounds nuw %struct.shm_mq, ptr %26, i32 0, i32 5
  store i64 %25, ptr %27, align 8
  %28 = load ptr, ptr %5, align 8
  %29 = getelementptr inbounds nuw %struct.shm_mq, ptr %28, i32 0, i32 6
  store i8 0, ptr %29, align 8
  %30 = load i64, ptr %6, align 8
  %31 = sub i64 %30, 50
  %32 = trunc i64 %31 to i8
  %33 = load ptr, ptr %5, align 8
  %34 = getelementptr inbounds nuw %struct.shm_mq, ptr %33, i32 0, i32 7
  store i8 %32, ptr %34, align 1
  %35 = load ptr, ptr %5, align 8
  call void @llvm.lifetime.end.p0(i64 8, ptr %6) #8
  call void @llvm.lifetime.end.p0(i64 8, ptr %5) #8
  ret ptr %35
}