; Function Attrs: nounwind uwtable
define dso_local noundef ptr @shm_mq_create(ptr noundef returned initializes((0, 1), (8, 24)) %0, i64 noundef %1) local_unnamed_addr #0 {
  %3 = and i64 %1, -8
  tail call void asm sideeffect "", "~{memory},~{dirflag},~{fpsr},~{flags}"() #11, !srcloc !4
  store i8 0, ptr %0, align 8
  %4 = getelementptr inbounds nuw i8, ptr %0, i64 8
  %5 = getelementptr inbounds nuw i8, ptr %0, i64 24
  tail call void @llvm.memset.p0.i64(ptr noundef nonnull align 8 dereferenceable(16) %4, i8 0, i64 16, i1 false)
  store volatile i64 0, ptr %5, align 8
  %6 = getelementptr inbounds nuw i8, ptr %0, i64 32
  store volatile i64 0, ptr %6, align 8
  %7 = add i64 %3, -56
  %8 = getelementptr inbounds nuw i8, ptr %0, i64 40
  store i64 %7, ptr %8, align 8
  %9 = getelementptr inbounds nuw i8, ptr %0, i64 48
  store i8 0, ptr %9, align 8
  %10 = getelementptr inbounds nuw i8, ptr %0, i64 49
  store i8 6, ptr %10, align 1
  ret ptr %0
}